target datalayout = "e-m:e-p270:32:32-p271:32:32-p272:64:64-i64:64-i128:128-f80:128-n8:16:32:64-S128"
target triple = "x86_64-pc-linux-gnu"

; Function Attrs: nounwind uwtable
define dso_local ptr @logicalrep_read_truncate(ptr noundef %0, ptr noundef %1, ptr noundef %2) #0 {
  %4 = alloca ptr, align 8
  %5 = alloca ptr, align 8
  %6 = alloca ptr, align 8
  %7 = alloca i32, align 4
  %8 = alloca i32, align 4
  %9 = alloca ptr, align 8
  %10 = alloca i8, align 1
  store ptr %0, ptr %4, align 8
  store ptr %1, ptr %5, align 8
  store ptr %2, ptr %6, align 8
  call void @llvm.lifetime.start.p0(i64 4, ptr %7) #9
  call void @llvm.lifetime.start.p0(i64 4, ptr %8) #9
  call void @llvm.lifetime.start.p0(i64 8, ptr %9) #9
  store ptr null, ptr %9, align 8
  call void @llvm.lifetime.start.p0(i64 1, ptr %10) #9
  %11 = load ptr, ptr %4, align 8
  %12 = call i32 @pq_getmsgint(ptr noundef %11, i32 noundef 4)
  store i32 %12, ptr %8, align 4
  %13 = load ptr, ptr %4, align 8
  %14 = call i32 @pq_getmsgint(ptr noundef %13, i32 noundef 1)
  %15 = trunc i32 %14 to i8
  store i8 %15, ptr %10, align 1
  %16 = load i8, ptr %10, align 1
  %17 = zext i8 %16 to i32
  %18 = and i32 %17, 1
  %19 = icmp sgt i32 %18, 0
  %20 = load ptr, ptr %5, align 8
  %21 = zext i1 %19 to i8
  store i8 %21, ptr %20, align 1
  %22 = load i8, ptr %10, align 1
  %23 = zext i8 %22 to i32
  %24 = and i32 %23, 2
  %25 = icmp sgt i32 %24, 0
  %26 = load ptr, ptr %6, align 8
  %27 = zext i1 %25 to i8
  store i8 %27, ptr %26, align 1
  store i32 0, ptr %7, align 4
  br label %28

28:                                               ; preds = %37, %3
  %29 = load i32, ptr %7, align 4
  %30 = load i32, ptr %8, align 4
  %31 = icmp slt i32 %29, %30
  br i1 %31, label %32, label %40

32:                                               ; preds = %28
  %33 = load ptr, ptr %9, align 8
  %34 = load ptr, ptr %4, align 8
  %35 = call i32 @pq_getmsgint(ptr noundef %34, i32 noundef 4)
  %36 = call ptr @lappend_oid(ptr noundef %33, i32 noundef %35)
  store ptr %36, ptr %9, align 8
  br label %37

37:                                               ; preds = %32
  %38 = load i32, ptr %7, align 4
  %39 = add i32 %38, 1
  store i32 %39, ptr %7, align 4
  br label %28, !llvm.loop !11

40:                                               ; preds = %28
  %41 = load ptr, ptr %9, align 8
  call void @llvm.lifetime.end.p0(i64 1, ptr %10) #9
  call void @llvm.lifetime.end.p0(i64 8, ptr %9) #9
  call void @llvm.lifetime.end.p0(i64 4, ptr %8) #9
  call void @llvm.lifetime.end.p0(i64 4, ptr %7) #9
  ret ptr %41
}