; Function Attrs: nounwind uwtable
define dso_local ptr @logicalrep_read_truncate(ptr noundef %0, ptr noundef writeonly captures(none) initializes((0, 1)) %1, ptr noundef writeonly captures(none) initializes((0, 1)) %2) local_unnamed_addr #0 {
  %4 = tail call i32 @pq_getmsgint(ptr noundef %0, i32 noundef 4) #8
  %5 = tail call i32 @pq_getmsgint(ptr noundef %0, i32 noundef 1) #8
  %6 = trunc i32 %5 to i8
  %7 = and i8 %6, 1
  store i8 %7, ptr %1, align 1
  %8 = lshr i8 %6, 1
  %9 = and i8 %8, 1
  store i8 %9, ptr %2, align 1
  %10 = icmp sgt i32 %4, 0
  br i1 %10, label %.lr.ph, label %._crit_edge

.lr.ph:                                           ; preds = %3, %.lr.ph
  %.013 = phi i32 [ %13, %.lr.ph ], [ 0, %3 ]
  %.01112 = phi ptr [ %12, %.lr.ph ], [ null, %3 ]
  %11 = tail call i32 @pq_getmsgint(ptr noundef %0, i32 noundef 4) #8
  %12 = tail call ptr @lappend_oid(ptr noundef %.01112, i32 noundef %11) #8
  %13 = add nuw nsw i32 %.013, 1
  %exitcond.not = icmp eq i32 %13, %4
  br i1 %exitcond.not, label %._crit_edge, label %.lr.ph, !llvm.loop !182

._crit_edge:                                      ; preds = %.lr.ph, %3
  %.011.lcssa = phi ptr [ null, %3 ], [ %12, %.lr.ph ]
  ret ptr %.011.lcssa
}